; Function Attrs: mustprogress uwtable
define hidden noundef ptr @_ZN17duckdb_libpgquery14core_yyreallocEPvmS0_(ptr noundef %0, i64 noundef %1, ptr noundef readnone captures(none) %2) local_unnamed_addr #0 {
  %.not = icmp eq ptr %0, null
  br i1 %.not, label %6, label %4

4:                                                ; preds = %3
  %5 = tail call noundef ptr @_ZN17duckdb_libpgquery8repallocEPvm(ptr noundef nonnull %0, i64 noundef %1)
  br label %8

6:                                                ; preds = %3
  %7 = tail call noundef ptr @_ZN17duckdb_libpgquery6pallocEm(i64 noundef %1)
  br label %8

8:                                                ; preds = %6, %4
  %.0 = phi ptr [ %5, %4 ], [ %7, %6 ]
  ret ptr %.0
}